target datalayout = "e-m:e-p270:32:32-p271:32:32-p272:64:64-i64:64-i128:128-f80:128-n8:16:32:64-S128"
target triple = "x86_64-unknown-linux-gnu"

%struct.ArchCPU = type { %struct.CPUState, %struct.CPUArchState, ptr, ptr, %struct.RISCVCPUConfig, ptr, i32, ptr, [8 x i8] }
%struct.CPUState = type { %struct.DeviceState, ptr, i32, i32, ptr, i32, i8, i8, ptr, i8, i8, i8, i8, i8, i8, i8, i8, i32, i32, i32, i32, i64, i64, i64, [1 x %struct.__jmp_buf_tag], %struct.QemuMutex, %struct.anon, ptr, i32, ptr, ptr, ptr, ptr, i32, i32, %union.anon, %union.anon.0, %union.anon.1, ptr, ptr, i64, i32, ptr, ptr, ptr, i32, i64, i32, %struct.QemuLockCnt, [1 x i64], ptr, i32, i32, i32, i32, i32, ptr, i8, i8, i64, i8, i8, ptr, [8 x i8], [0 x i8], %struct.CPUNegativeOffsetState }
%struct.DeviceState = type { %struct.Object, ptr, ptr, i8, i8, i64, ptr, i32, i8, ptr, %struct.NamedGPIOListHead, %struct.NamedClockListHead, %struct.BusStateHead, i32, i32, i32, %struct.ResettableState, ptr, %struct.MemReentrancyGuard }
%struct.Object = type { ptr, ptr, ptr, i32, ptr }
%struct.NamedGPIOListHead = type { ptr }
%struct.NamedClockListHead = type { ptr }
%struct.BusStateHead = type { ptr }
%struct.ResettableState = type { i32, i8, i8 }
%struct.MemReentrancyGuard = type { i8 }
%struct.__jmp_buf_tag = type { [8 x i64], i32, %struct.__sigset_t }
%struct.__sigset_t = type { [16 x i64] }
%struct.QemuMutex = type { %union.pthread_mutex_t, i8 }
%union.pthread_mutex_t = type { %struct.__pthread_mutex_s }
%struct.__pthread_mutex_s = type { i32, i32, i32, i32, i32, i16, i16, %struct.__pthread_internal_list }
%struct.__pthread_internal_list = type { ptr, ptr }
%struct.anon = type { ptr, ptr }
%union.anon = type { %struct.QTailQLink }
%struct.QTailQLink = type { ptr, ptr }
%union.anon.0 = type { %struct.QTailQLink }
%union.anon.1 = type { %struct.QTailQLink }
%struct.QemuLockCnt = type { i32 }
%struct.CPUNegativeOffsetState = type { %struct.CPUTLB, %union.IcountDecr, i8, [11 x i8] }
%struct.CPUTLB = type { %struct.CPUTLBCommon, [16 x %struct.CPUTLBDesc], [16 x %struct.CPUTLBDescFast] }
%struct.CPUTLBCommon = type { %struct.QemuSpin, i16, i64, i64, i64 }
%struct.QemuSpin = type { i32 }
%struct.CPUTLBDesc = type { i64, i64, i64, i64, i64, i64, [8 x %union.CPUTLBEntry], [8 x %struct.CPUTLBEntryFull], ptr }
%union.CPUTLBEntry = type { %struct.anon.2 }
%struct.anon.2 = type { i64, i64, i64, i64 }
%struct.CPUTLBEntryFull = type { i64, i64, %struct.MemTxAttrs, i8, i8, [3 x i8], %union.anon.3 }
%struct.MemTxAttrs = type { i32 }
%union.anon.3 = type { %struct.anon.4 }
%struct.anon.4 = type { i8, i8, i8 }
%struct.CPUTLBDescFast = type { i64, ptr }
%union.IcountDecr = type { i32 }
%struct.CPUArchState = type { [32 x i64], [32 x i64], [512 x i64], i64, i64, i64, i64, i64, i8, i64, i64, i64, [32 x i64], i64, %struct.float_status, i64, i64, i64, i64, i64, i64, i32, i32, i32, i32, i32, i64, i64, i64, i8, i64, i64, i64, i64, i64, i8, i8, i64, i64, i64, i64, i64, i64, i64, i64, i64, i64, i64, i64, i64, i64, i64, [64 x i8], [64 x i8], i64, i64, i64, i64, i64, i64, i64, i64, i64, i64, i64, i64, i64, i64, i64, i64, i64, [64 x i8], i64, i64, i64, i64, i64, i64, i64, i64, i64, i64, i64, i64, i64, i64, i64, i64, i64, i64, i64, i8, i8, i64, i64, i64, [32 x %struct.PMUCTRState], [32 x i64], [32 x i64], i64, i64, i64, i64, %struct.pmp_table_t, i64, i64, [2 x i64], [2 x i64], [2 x i64], [2 x ptr], [2 x ptr], [2 x ptr], i64, i8, ptr, ptr, [4 x ptr], [4 x ptr], i8, i64, i64, i64, i64, i64, i64, i64, i64, [4 x i64], [4 x i64], [4 x i64], i64, i64, i64, i64, ptr, ptr, i8, i64, i64, [8 x i8] }
%struct.float_status = type { i16, i8, i8, i8, i8, i8, i8, i8, i8, i8, i8, i8 }
%struct.PMUCTRState = type { i64, i64, i64, i64, i8, i64 }
%struct.pmp_table_t = type { [16 x %struct.pmp_entry_t], [16 x %struct.pmp_addr_t], i32 }
%struct.pmp_entry_t = type { i64, i8 }
%struct.pmp_addr_t = type { i64, i64 }
%struct.RISCVCPUConfig = type { i8, i8, i8, i8, i8, i8, i8, i8, i8, i8, i8, i8, i8, i8, i8, i8, i8, i8, i8, i8, i8, i8, i8, i8, i8, i8, i8, i8, i8, i8, i8, i8, i8, i8, i8, i8, i8, i8, i8, i8, i8, i8, i8, i8, i8, i8, i8, i8, i8, i8, i8, i8, i8, i8, i8, i8, i8, i8, i8, i8, i8, i8, i8, i8, i8, i8, i8, i8, i8, i8, i8, i8, i8, i8, i8, i8, i8, i8, i32, i64, i64, i8, i8, i8, i8, i8, i8, i8, i8, i8, i8, i8, i8, i32, ptr, ptr, ptr, ptr, i16, i16, i16, i16, i8, i8, i8, i8, i8, %struct.RISCVSATPMap }
%struct.RISCVSATPMap = type { i16, i16, i16 }

@use_icount = external global i32, align 4

; Function Attrs: nounwind sspstrong uwtable
define internal i64 @pmu_icount_ticks_to_ns(i64 noundef %value) #0 {
entry:
  %value.addr = alloca i64, align 8
  %ret = alloca i64, align 8
  store i64 %value, ptr %value.addr, align 8
  store i64 0, ptr %ret, align 8
  %0 = load i32, ptr @use_icount, align 4
  %tobool = icmp ne i32 %0, 0
  br i1 %tobool, label %if.then, label %if.else

if.then:                                          ; preds = %entry
  %1 = load i64, ptr %value.addr, align 8
  %call = call i64 @icount_to_ns(i64 noundef %1)
  store i64 %call, ptr %ret, align 8
  br label %if.end

if.else:                                          ; preds = %entry
  %2 = load i64, ptr %value.addr, align 8
  %mul = mul i64 1, %2
  store i64 %mul, ptr %ret, align 8
  br label %if.end

if.end:                                           ; preds = %if.else, %if.then
  %3 = load i64, ptr %ret, align 8
  ret i64 %3
}

; Function Attrs: nounwind sspstrong uwtable
define dso_local zeroext i1 @riscv_pmu_ctr_monitor_instructions(ptr noundef %env, i32 noundef %target_ctr) #0 {
entry:
  %retval = alloca i1, align 1
  %env.addr = alloca ptr, align 8
  %target_ctr.addr = alloca i32, align 4
  %cpu = alloca ptr, align 8
  %event_idx = alloca i32, align 4
  %ctr_idx = alloca i32, align 4
  store ptr %env, ptr %env.addr, align 8
  store i32 %target_ctr, ptr %target_ctr.addr, align 4
  %0 = load i32, ptr %target_ctr.addr, align 4
  %cmp = icmp eq i32 %0, 2
  br i1 %cmp, label %if.then, label %if.end

if.then:                                          ; preds = %entry
  store i1 true, ptr %retval, align 1
  br label %return

if.end:                                           ; preds = %entry
  %1 = load ptr, ptr %env.addr, align 8
  %call = call ptr @env_archcpu(ptr noundef %1)
  store ptr %call, ptr %cpu, align 8
  %2 = load ptr, ptr %cpu, align 8
  %pmu_event_ctr_map = getelementptr inbounds %struct.ArchCPU, ptr %2, i32 0, i32 7
  %3 = load ptr, ptr %pmu_event_ctr_map, align 16
  %tobool = icmp ne ptr %3, null
  br i1 %tobool, label %if.end2, label %if.then1

if.then1:                                         ; preds = %if.end
  store i1 false, ptr %retval, align 1
  br label %return

if.end2:                                          ; preds = %if.end
  store i32 2, ptr %event_idx, align 4
  %4 = load ptr, ptr %cpu, align 8
  %pmu_event_ctr_map3 = getelementptr inbounds %struct.ArchCPU, ptr %4, i32 0, i32 7
  %5 = load ptr, ptr %pmu_event_ctr_map3, align 16
  %6 = load i32, ptr %event_idx, align 4
  %conv = zext i32 %6 to i64
  %7 = inttoptr i64 %conv to ptr
  %call4 = call ptr @g_hash_table_lookup(ptr noundef %5, ptr noundef %7)
  %8 = ptrtoint ptr %call4 to i64
  %conv5 = trunc i64 %8 to i32
  store i32 %conv5, ptr %ctr_idx, align 4
  %9 = load i32, ptr %ctr_idx, align 4
  %tobool6 = icmp ne i32 %9, 0
  br i1 %tobool6, label %if.end8, label %if.then7

if.then7:                                         ; preds = %if.end2
  store i1 false, ptr %retval, align 1
  br label %return

if.end8:                                          ; preds = %if.end2
  %10 = load i32, ptr %target_ctr.addr, align 4
  %11 = load i32, ptr %ctr_idx, align 4
  %cmp9 = icmp eq i32 %10, %11
  %cond = select i1 %cmp9, i32 1, i32 0
  %tobool11 = icmp ne i32 %cond, 0
  store i1 %tobool11, ptr %retval, align 1
  br label %return

return:                                           ; preds = %if.end8, %if.then7, %if.then1, %if.then
  %12 = load i1, ptr %retval, align 1
  ret i1 %12
}

; Function Attrs: nounwind sspstrong uwtable
define dso_local zeroext i1 @riscv_pmu_ctr_monitor_cycles(ptr noundef %env, i32 noundef %target_ctr) #0 {
entry:
  %retval = alloca i1, align 1
  %env.addr = alloca ptr, align 8
  %target_ctr.addr = alloca i32, align 4
  %cpu = alloca ptr, align 8
  %event_idx = alloca i32, align 4
  %ctr_idx = alloca i32, align 4
  store ptr %env, ptr %env.addr, align 8
  store i32 %target_ctr, ptr %target_ctr.addr, align 4
  %0 = load i32, ptr %target_ctr.addr, align 4
  %cmp = icmp eq i32 %0, 0
  br i1 %cmp, label %if.then, label %if.end

if.then:                                          ; preds = %entry
  store i1 true, ptr %retval, align 1
  br label %return

if.end:                                           ; preds = %entry
  %1 = load ptr, ptr %env.addr, align 8
  %call = call ptr @env_archcpu(ptr noundef %1)
  store ptr %call, ptr %cpu, align 8
  %2 = load ptr, ptr %cpu, align 8
  %pmu_event_ctr_map = getelementptr inbounds %struct.ArchCPU, ptr %2, i32 0, i32 7
  %3 = load ptr, ptr %pmu_event_ctr_map, align 16
  %tobool = icmp ne ptr %3, null
  br i1 %tobool, label %if.end2, label %if.then1

if.then1:                                         ; preds = %if.end
  store i1 false, ptr %retval, align 1
  br label %return

if.end2:                                          ; preds = %if.end
  store i32 1, ptr %event_idx, align 4
  %4 = load ptr, ptr %cpu, align 8
  %pmu_event_ctr_map3 = getelementptr inbounds %struct.ArchCPU, ptr %4, i32 0, i32 7
  %5 = load ptr, ptr %pmu_event_ctr_map3, align 16
  %6 = load i32, ptr %event_idx, align 4
  %conv = zext i32 %6 to i64
  %7 = inttoptr i64 %conv to ptr
  %call4 = call ptr @g_hash_table_lookup(ptr noundef %5, ptr noundef %7)
  %8 = ptrtoint ptr %call4 to i64
  %conv5 = trunc i64 %8 to i32
  store i32 %conv5, ptr %ctr_idx, align 4
  %9 = load i32, ptr %ctr_idx, align 4
  %tobool6 = icmp ne i32 %9, 0
  br i1 %tobool6, label %if.end8, label %if.then7

if.then7:                                         ; preds = %if.end2
  store i1 false, ptr %retval, align 1
  br label %return

if.end8:                                          ; preds = %if.end2
  %10 = load i32, ptr %target_ctr.addr, align 4
  %11 = load i32, ptr %ctr_idx, align 4
  %cmp9 = icmp eq i32 %10, %11
  %cond = select i1 %cmp9, i32 1, i32 0
  %tobool11 = icmp ne i32 %cond, 0
  store i1 %tobool11, ptr %retval, align 1
  br label %return

return:                                           ; preds = %if.end8, %if.then7, %if.then1, %if.then
  %12 = load i1, ptr %retval, align 1
  ret i1 %12
}

; Function Attrs: nounwind sspstrong uwtable
define internal zeroext i1 @riscv_pmu_counter_valid(ptr noundef %cpu, i32 noundef %ctr_idx) #0 {
entry:
  %retval = alloca i1, align 1
  %cpu.addr = alloca ptr, align 8
  %ctr_idx.addr = alloca i32, align 4
  store ptr %cpu, ptr %cpu.addr, align 8
  store i32 %ctr_idx, ptr %ctr_idx.addr, align 4
  %0 = load i32, ptr %ctr_idx.addr, align 4
  %cmp = icmp ult i32 %0, 3
  br i1 %cmp, label %if.then, label %lor.lhs.false

lor.lhs.false:                                    ; preds = %entry
  %1 = load i32, ptr %ctr_idx.addr, align 4
  %cmp1 = icmp uge i32 %1, 32
  br i1 %cmp1, label %if.then, label %lor.lhs.false2

lor.lhs.false2:                                   ; preds = %lor.lhs.false
  %2 = load ptr, ptr %cpu.addr, align 8
  %pmu_avail_ctrs = getelementptr inbounds %struct.ArchCPU, ptr %2, i32 0, i32 6
  %3 = load i32, ptr %pmu_avail_ctrs, align 8
  %conv = zext i32 %3 to i64
  %4 = load i32, ptr %ctr_idx.addr, align 4
  %sh_prom = zext i32 %4 to i64
  %shl = shl i64 1, %sh_prom
  %and = and i64 %conv, %shl
  %tobool = icmp ne i64 %and, 0
  br i1 %tobool, label %if.else, label %if.then

if.then:                                          ; preds = %lor.lhs.false2, %lor.lhs.false, %entry
  store i1 false, ptr %retval, align 1
  br label %return

if.else:                                          ; preds = %lor.lhs.false2
  store i1 true, ptr %retval, align 1
  br label %return

return:                                           ; preds = %if.else, %if.then
  %5 = load i1, ptr %retval, align 1
  ret i1 %5
}

; Function Attrs: nounwind sspstrong uwtable
define internal ptr @env_archcpu(ptr noundef %env) #0 {
entry:
  %env.addr = alloca ptr, align 8
  store ptr %env, ptr %env.addr, align 8
  %0 = load ptr, ptr %env.addr, align 8
  %add.ptr = getelementptr i8, ptr %0, i64 -10176
  ret ptr %add.ptr
}

; Function Attrs: nounwind sspstrong uwtable
define dso_local i32 @riscv_pmu_setup_timer(ptr noundef %env, i64 noundef %value, i32 noundef %ctr_idx) #0 {
entry:
  %retval = alloca i32, align 4
  %env.addr = alloca ptr, align 8
  %value.addr = alloca i64, align 8
  %ctr_idx.addr = alloca i32, align 4
  %overflow_delta = alloca i64, align 8
  %overflow_at = alloca i64, align 8
  %overflow_ns = alloca i64, align 8
  %overflow_left = alloca i64, align 8
  %cpu = alloca ptr, align 8
  %counter = alloca ptr, align 8
  store ptr %env, ptr %env.addr, align 8
  store i64 %value, ptr %value.addr, align 8
  store i32 %ctr_idx, ptr %ctr_idx.addr, align 4
  store i64 0, ptr %overflow_left, align 8
  %0 = load ptr, ptr %env.addr, align 8
  %call = call ptr @env_archcpu(ptr noundef %0)
  store ptr %call, ptr %cpu, align 8
  %1 = load ptr, ptr %env.addr, align 8
  %pmu_ctrs = getelementptr inbounds %struct.CPUArchState, ptr %1, i32 0, i32 96
  %2 = load i32, ptr %ctr_idx.addr, align 4
  %idxprom = zext i32 %2 to i64
  %arrayidx = getelementptr [32 x %struct.PMUCTRState], ptr %pmu_ctrs, i64 0, i64 %idxprom
  store ptr %arrayidx, ptr %counter, align 8
  %3 = load ptr, ptr %cpu, align 8
  %4 = load i32, ptr %ctr_idx.addr, align 4
  %call1 = call zeroext i1 @riscv_pmu_counter_valid(ptr noundef %3, i32 noundef %4)
  br i1 %call1, label %lor.lhs.false, label %if.then

lor.lhs.false:                                    ; preds = %entry
  %5 = load ptr, ptr %cpu, align 8
  %cfg = getelementptr inbounds %struct.ArchCPU, ptr %5, i32 0, i32 4
  %ext_sscofpmf = getelementptr inbounds %struct.RISCVCPUConfig, ptr %cfg, i32 0, i32 74
  %6 = load i8, ptr %ext_sscofpmf, align 2
  %tobool = trunc i8 %6 to i1
  br i1 %tobool, label %if.end, label %if.then

if.then:                                          ; preds = %lor.lhs.false, %entry
  store i32 -1, ptr %retval, align 4
  br label %return

if.end:                                           ; preds = %lor.lhs.false
  %7 = load i64, ptr %value.addr, align 8
  %tobool2 = icmp ne i64 %7, 0
  br i1 %tobool2, label %if.then3, label %if.else

if.then3:                                         ; preds = %if.end
  %8 = load i64, ptr %value.addr, align 8
  %sub = sub i64 -1, %8
  %add = add i64 %sub, 1
  store i64 %add, ptr %overflow_delta, align 8
  br label %if.end4

if.else:                                          ; preds = %if.end
  store i64 -1, ptr %overflow_delta, align 8
  br label %if.end4

if.end4:                                          ; preds = %if.else, %if.then3
  %9 = load i64, ptr %overflow_delta, align 8
  %cmp = icmp ugt i64 %9, 9223372036854775807
  br i1 %cmp, label %if.then5, label %if.end7

if.then5:                                         ; preds = %if.end4
  %10 = load i64, ptr %overflow_delta, align 8
  %sub6 = sub i64 %10, 9223372036854775807
  store i64 %sub6, ptr %overflow_left, align 8
  br label %if.end7

if.end7:                                          ; preds = %if.then5, %if.end4
  %11 = load ptr, ptr %env.addr, align 8
  %12 = load i32, ptr %ctr_idx.addr, align 4
  %call8 = call zeroext i1 @riscv_pmu_ctr_monitor_cycles(ptr noundef %11, i32 noundef %12)
  br i1 %call8, label %if.then11, label %lor.lhs.false9

lor.lhs.false9:                                   ; preds = %if.end7
  %13 = load ptr, ptr %env.addr, align 8
  %14 = load i32, ptr %ctr_idx.addr, align 4
  %call10 = call zeroext i1 @riscv_pmu_ctr_monitor_instructions(ptr noundef %13, i32 noundef %14)
  br i1 %call10, label %if.then11, label %if.else14

if.then11:                                        ; preds = %lor.lhs.false9, %if.end7
  %15 = load i64, ptr %overflow_delta, align 8
  %call12 = call i64 @pmu_icount_ticks_to_ns(i64 noundef %15)
  store i64 %call12, ptr %overflow_ns, align 8
  %16 = load i64, ptr %overflow_left, align 8
  %call13 = call i64 @pmu_icount_ticks_to_ns(i64 noundef %16)
  store i64 %call13, ptr %overflow_left, align 8
  br label %if.end15

if.else14:                                        ; preds = %lor.lhs.false9
  store i32 -1, ptr %retval, align 4
  br label %return

if.end15:                                         ; preds = %if.then11
  %call16 = call i64 @qemu_clock_get_ns(i32 noundef 1)
  %17 = load i64, ptr %overflow_ns, align 8
  %add17 = add i64 %call16, %17
  store i64 %add17, ptr %overflow_at, align 8
  %18 = load i64, ptr %overflow_at, align 8
  %cmp18 = icmp ugt i64 %18, 9223372036854775807
  br i1 %cmp18, label %if.then19, label %if.end22

if.then19:                                        ; preds = %if.end15
  %19 = load i64, ptr %overflow_at, align 8
  %sub20 = sub i64 %19, 9223372036854775807
  %20 = load i64, ptr %overflow_left, align 8
  %add21 = add i64 %20, %sub20
  store i64 %add21, ptr %overflow_left, align 8
  %21 = load i64, ptr %overflow_left, align 8
  %22 = load ptr, ptr %counter, align 8
  %irq_overflow_left = getelementptr inbounds %struct.PMUCTRState, ptr %22, i32 0, i32 5
  store i64 %21, ptr %irq_overflow_left, align 8
  store i64 9223372036854775807, ptr %overflow_at, align 8
  br label %if.end22

if.end22:                                         ; preds = %if.then19, %if.end15
  %23 = load ptr, ptr %cpu, align 8
  %pmu_timer = getelementptr inbounds %struct.ArchCPU, ptr %23, i32 0, i32 5
  %24 = load ptr, ptr %pmu_timer, align 16
  %25 = load i64, ptr %overflow_at, align 8
  call void @timer_mod_anticipate_ns(ptr noundef %24, i64 noundef %25)
  store i32 0, ptr %retval, align 4
  br label %return

return:                                           ; preds = %if.end22, %if.else14, %if.then
  %26 = load i32, ptr %retval, align 4
  ret i32 %26
}