; Function Attrs: nounwind sspstrong uwtable
define dso_local range(i32 -1, 1) i32 @riscv_pmu_setup_timer(ptr noundef captures(none) %env, i64 noundef %value, i32 noundef %ctr_idx) local_unnamed_addr #0 {
entry:
  %idxprom = zext i32 %ctr_idx to i64
  %0 = add i32 %ctr_idx, -32
  %or.cond.i = icmp ult i32 %0, -29
  br i1 %or.cond.i, label %return, label %riscv_pmu_counter_valid.exit

riscv_pmu_counter_valid.exit:                     ; preds = %entry
  %pmu_avail_ctrs.i = getelementptr i8, ptr %env, i64 9000
  %1 = load i32, ptr %pmu_avail_ctrs.i, align 8
  %conv.i = zext i32 %1 to i64
  %shl.i = shl nuw nsw i64 1, %idxprom
  %and.i = and i64 %shl.i, %conv.i
  %tobool.not.i.not = icmp eq i64 %and.i, 0
  br i1 %tobool.not.i.not, label %return, label %lor.lhs.false

lor.lhs.false:                                    ; preds = %riscv_pmu_counter_valid.exit
  %ext_sscofpmf = getelementptr i8, ptr %env, i64 8890
  %2 = load i8, ptr %ext_sscofpmf, align 2
  %tobool = trunc i8 %2 to i1
  br i1 %tobool, label %if.end.i, label %return

if.end.i:                                         ; preds = %lor.lhs.false
  %tobool2.not = icmp eq i64 %value, 0
  %add = sub i64 0, %value
  %overflow_delta.0 = select i1 %tobool2.not, i64 -1, i64 %add
  %cmp = icmp slt i64 %overflow_delta.0, 0
  %sub6 = add i64 %overflow_delta.0, -9223372036854775807
  %overflow_left.0 = select i1 %cmp, i64 %sub6, i64 0
  %pmu_event_ctr_map.i = getelementptr i8, ptr %env, i64 9008
  %3 = load ptr, ptr %pmu_event_ctr_map.i, align 16
  %tobool.not.i16 = icmp eq ptr %3, null
  br i1 %tobool.not.i16, label %return, label %riscv_pmu_ctr_monitor_cycles.exit

riscv_pmu_ctr_monitor_cycles.exit:                ; preds = %if.end.i
  %call4.i = tail call ptr @g_hash_table_lookup(ptr noundef nonnull %3, ptr noundef nonnull inttoptr (i64 1 to ptr)) #6
  %4 = ptrtoint ptr %call4.i to i64
  %conv5.i = trunc i64 %4 to i32
  %cmp9.i = icmp eq i32 %ctr_idx, %conv5.i
  br i1 %cmp9.i, label %if.then11, label %if.end.i19

if.end.i19:                                       ; preds = %riscv_pmu_ctr_monitor_cycles.exit
  %.pre = load ptr, ptr %pmu_event_ctr_map.i, align 16
  %tobool.not.i21 = icmp eq ptr %.pre, null
  br i1 %tobool.not.i21, label %return, label %riscv_pmu_ctr_monitor_instructions.exit

riscv_pmu_ctr_monitor_instructions.exit:          ; preds = %if.end.i19
  %call4.i23 = tail call ptr @g_hash_table_lookup(ptr noundef nonnull %.pre, ptr noundef nonnull inttoptr (i64 2 to ptr)) #6
  %5 = ptrtoint ptr %call4.i23 to i64
  %conv5.i24 = trunc i64 %5 to i32
  %tobool6.not.i = icmp ne i32 %conv5.i24, 0
  %cmp9.i25 = icmp eq i32 %ctr_idx, %conv5.i24
  %spec.select.i = and i1 %tobool6.not.i, %cmp9.i25
  br i1 %spec.select.i, label %if.then11, label %return

if.then11:                                        ; preds = %riscv_pmu_ctr_monitor_instructions.exit, %riscv_pmu_ctr_monitor_cycles.exit
  %6 = load i32, ptr @use_icount, align 4
  %tobool.not.i27 = icmp eq i32 %6, 0
  br i1 %tobool.not.i27, label %pmu_icount_ticks_to_ns.exit34, label %pmu_icount_ticks_to_ns.exit

pmu_icount_ticks_to_ns.exit:                      ; preds = %if.then11
  %call.i = tail call i64 @icount_to_ns(i64 noundef %overflow_delta.0) #6
  %.pr = load i32, ptr @use_icount, align 4
  %tobool.not.i29 = icmp eq i32 %.pr, 0
  br i1 %tobool.not.i29, label %pmu_icount_ticks_to_ns.exit34, label %if.then.i30

if.then.i30:                                      ; preds = %pmu_icount_ticks_to_ns.exit
  %call.i31 = tail call i64 @icount_to_ns(i64 noundef %overflow_left.0) #6
  br label %pmu_icount_ticks_to_ns.exit34

pmu_icount_ticks_to_ns.exit34:                    ; preds = %if.then11, %pmu_icount_ticks_to_ns.exit, %if.then.i30
  %ret.0.i40 = phi i64 [ %call.i, %if.then.i30 ], [ %call.i, %pmu_icount_ticks_to_ns.exit ], [ %overflow_delta.0, %if.then11 ]
  %ret.0.i33 = phi i64 [ %call.i31, %if.then.i30 ], [ %overflow_left.0, %pmu_icount_ticks_to_ns.exit ], [ %overflow_left.0, %if.then11 ]
  %call16 = tail call i64 @qemu_clock_get_ns(i32 noundef 1) #6
  %add17 = add i64 %call16, %ret.0.i40
  %cmp18 = icmp slt i64 %add17, 0
  br i1 %cmp18, label %if.then19, label %if.end22

if.then19:                                        ; preds = %pmu_icount_ticks_to_ns.exit34
  %sub20 = add i64 %ret.0.i33, -9223372036854775807
  %add21 = add i64 %sub20, %add17
  %irq_overflow_left.idx = mul nuw nsw i64 %idxprom, 48
  %7 = getelementptr i8, ptr %env, i64 5784
  %irq_overflow_left = getelementptr i8, ptr %7, i64 %irq_overflow_left.idx
  store i64 %add21, ptr %irq_overflow_left, align 8
  br label %if.end22

if.end22:                                         ; preds = %if.then19, %pmu_icount_ticks_to_ns.exit34
  %overflow_at.0 = phi i64 [ 9223372036854775807, %if.then19 ], [ %add17, %pmu_icount_ticks_to_ns.exit34 ]
  %pmu_timer = getelementptr i8, ptr %env, i64 8992
  %8 = load ptr, ptr %pmu_timer, align 16
  tail call void @timer_mod_anticipate_ns(ptr noundef %8, i64 noundef %overflow_at.0) #6
  br label %return

return:                                           ; preds = %if.end.i, %if.end.i19, %entry, %riscv_pmu_ctr_monitor_instructions.exit, %riscv_pmu_counter_valid.exit, %lor.lhs.false, %if.end22
  %retval.0 = phi i32 [ 0, %if.end22 ], [ -1, %lor.lhs.false ], [ -1, %riscv_pmu_counter_valid.exit ], [ -1, %riscv_pmu_ctr_monitor_instructions.exit ], [ -1, %entry ], [ -1, %if.end.i19 ], [ -1, %if.end.i ]
  ret i32 %retval.0
}